
LED_MOVE.elf:     file format elf32-avr

Sections:
Idx Name          Size      VMA       LMA       File off  Algn
  0 .data         00000000  00800100  00800100  00000180  2**0
                  CONTENTS, ALLOC, LOAD, DATA
  1 .text         0000012c  00000000  00000000  00000054  2**1
                  CONTENTS, ALLOC, LOAD, READONLY, CODE
  2 .comment      00000030  00000000  00000000  00000180  2**0
                  CONTENTS, READONLY
  3 .note.gnu.avr.deviceinfo 00000040  00000000  00000000  000001b0  2**2
                  CONTENTS, READONLY
  4 .debug_aranges 00000020  00000000  00000000  000001f0  2**0
                  CONTENTS, READONLY, DEBUGGING
  5 .debug_info   000008ee  00000000  00000000  00000210  2**0
                  CONTENTS, READONLY, DEBUGGING
  6 .debug_abbrev 000007fd  00000000  00000000  00000afe  2**0
                  CONTENTS, READONLY, DEBUGGING
  7 .debug_line   000002d4  00000000  00000000  000012fb  2**0
                  CONTENTS, READONLY, DEBUGGING
  8 .debug_frame  00000024  00000000  00000000  000015d0  2**2
                  CONTENTS, READONLY, DEBUGGING
  9 .debug_str    000003f1  00000000  00000000  000015f4  2**0
                  CONTENTS, READONLY, DEBUGGING
 10 .debug_loc    000000af  00000000  00000000  000019e5  2**0
                  CONTENTS, READONLY, DEBUGGING
 11 .debug_ranges 00000010  00000000  00000000  00001a94  2**0
                  CONTENTS, READONLY, DEBUGGING

Disassembly of section .text:

00000000 <__vectors>:
   0:	45 c0       	rjmp	.+138    	; 0x8c <__ctors_end>
   2:	00 00       	nop
   4:	4b c0       	rjmp	.+150    	; 0x9c <__bad_interrupt>
   6:	00 00       	nop
   8:	49 c0       	rjmp	.+146    	; 0x9c <__bad_interrupt>
   a:	00 00       	nop
   c:	47 c0       	rjmp	.+142    	; 0x9c <__bad_interrupt>
   e:	00 00       	nop
  10:	45 c0       	rjmp	.+138    	; 0x9c <__bad_interrupt>
  12:	00 00       	nop
  14:	43 c0       	rjmp	.+134    	; 0x9c <__bad_interrupt>
  16:	00 00       	nop
  18:	41 c0       	rjmp	.+130    	; 0x9c <__bad_interrupt>
  1a:	00 00       	nop
  1c:	3f c0       	rjmp	.+126    	; 0x9c <__bad_interrupt>
  1e:	00 00       	nop
  20:	3d c0       	rjmp	.+122    	; 0x9c <__bad_interrupt>
  22:	00 00       	nop
  24:	3b c0       	rjmp	.+118    	; 0x9c <__bad_interrupt>
  26:	00 00       	nop
  28:	39 c0       	rjmp	.+114    	; 0x9c <__bad_interrupt>
  2a:	00 00       	nop
  2c:	37 c0       	rjmp	.+110    	; 0x9c <__bad_interrupt>
  2e:	00 00       	nop
  30:	35 c0       	rjmp	.+106    	; 0x9c <__bad_interrupt>
  32:	00 00       	nop
  34:	33 c0       	rjmp	.+102    	; 0x9c <__bad_interrupt>
  36:	00 00       	nop
  38:	31 c0       	rjmp	.+98     	; 0x9c <__bad_interrupt>
  3a:	00 00       	nop
  3c:	2f c0       	rjmp	.+94     	; 0x9c <__bad_interrupt>
  3e:	00 00       	nop
  40:	2d c0       	rjmp	.+90     	; 0x9c <__bad_interrupt>
  42:	00 00       	nop
  44:	2b c0       	rjmp	.+86     	; 0x9c <__bad_interrupt>
  46:	00 00       	nop
  48:	29 c0       	rjmp	.+82     	; 0x9c <__bad_interrupt>
  4a:	00 00       	nop
  4c:	27 c0       	rjmp	.+78     	; 0x9c <__bad_interrupt>
  4e:	00 00       	nop
  50:	25 c0       	rjmp	.+74     	; 0x9c <__bad_interrupt>
  52:	00 00       	nop
  54:	23 c0       	rjmp	.+70     	; 0x9c <__bad_interrupt>
  56:	00 00       	nop
  58:	21 c0       	rjmp	.+66     	; 0x9c <__bad_interrupt>
  5a:	00 00       	nop
  5c:	1f c0       	rjmp	.+62     	; 0x9c <__bad_interrupt>
  5e:	00 00       	nop
  60:	1d c0       	rjmp	.+58     	; 0x9c <__bad_interrupt>
  62:	00 00       	nop
  64:	1b c0       	rjmp	.+54     	; 0x9c <__bad_interrupt>
  66:	00 00       	nop
  68:	19 c0       	rjmp	.+50     	; 0x9c <__bad_interrupt>
  6a:	00 00       	nop
  6c:	17 c0       	rjmp	.+46     	; 0x9c <__bad_interrupt>
  6e:	00 00       	nop
  70:	15 c0       	rjmp	.+42     	; 0x9c <__bad_interrupt>
  72:	00 00       	nop
  74:	13 c0       	rjmp	.+38     	; 0x9c <__bad_interrupt>
  76:	00 00       	nop
  78:	11 c0       	rjmp	.+34     	; 0x9c <__bad_interrupt>
  7a:	00 00       	nop
  7c:	0f c0       	rjmp	.+30     	; 0x9c <__bad_interrupt>
  7e:	00 00       	nop
  80:	0d c0       	rjmp	.+26     	; 0x9c <__bad_interrupt>
  82:	00 00       	nop
  84:	0b c0       	rjmp	.+22     	; 0x9c <__bad_interrupt>
  86:	00 00       	nop
  88:	09 c0       	rjmp	.+18     	; 0x9c <__bad_interrupt>
	...

0000008c <__ctors_end>:
  8c:	11 24       	eor	r1, r1
  8e:	1f be       	out	0x3f, r1	; 63
  90:	cf ef       	ldi	r28, 0xFF	; 255
  92:	d0 e1       	ldi	r29, 0x10	; 16
  94:	de bf       	out	0x3e, r29	; 62
  96:	cd bf       	out	0x3d, r28	; 61
  98:	02 d0       	rcall	.+4      	; 0x9e <main>
  9a:	46 c0       	rjmp	.+140    	; 0x128 <_exit>

0000009c <__bad_interrupt>:
  9c:	b1 cf       	rjmp	.-158    	; 0x0 <__vectors>

0000009e <main>:
#define LED_DDR     DDRB // LED 제어를 위한 포트의 데이터 방향 레지스터
#define LED_PORT    PORTB // LED를 켜고 끄기 위한 포트

int main(void)
{
	LED_DDR = 0xff; // 포트를 출력으로 설정
  9e:	8f ef       	ldi	r24, 0xFF	; 255
  a0:	87 bb       	out	0x17, r24	; 23
	
	while (1)
	{
		
		
 		for (uint8_t i = 0; i < 3; i++) // 0부터 3까지 반복                             좌 우측 사이드부터 한칸씩 안쪽으로 이동. 누적x
  a2:	20 e0       	ldi	r18, 0x00	; 0
  a4:	1d c0       	rjmp	.+58     	; 0xe0 <main+0x42>
 		{
 			LED_PORT = ((0x80>>i) | (0x01<<i)); // LED 위치를 오른쪽으로 이동
  a6:	80 e8       	ldi	r24, 0x80	; 128
  a8:	90 e0       	ldi	r25, 0x00	; 0
  aa:	ac 01       	movw	r20, r24
  ac:	02 2e       	mov	r0, r18
  ae:	02 c0       	rjmp	.+4      	; 0xb4 <main+0x16>
  b0:	55 95       	asr	r21
  b2:	47 95       	ror	r20
  b4:	0a 94       	dec	r0
  b6:	e2 f7       	brpl	.-8      	; 0xb0 <main+0x12>
  b8:	81 e0       	ldi	r24, 0x01	; 1
  ba:	90 e0       	ldi	r25, 0x00	; 0
  bc:	02 2e       	mov	r0, r18
  be:	02 c0       	rjmp	.+4      	; 0xc4 <main+0x26>
  c0:	88 0f       	add	r24, r24
  c2:	99 1f       	adc	r25, r25
  c4:	0a 94       	dec	r0
  c6:	e2 f7       	brpl	.-8      	; 0xc0 <main+0x22>
  c8:	84 2b       	or	r24, r20
  ca:	88 bb       	out	0x18, r24	; 24
	#else
		//round up by default
		__ticks_dc = (uint32_t)(ceil(fabs(__tmp)));
	#endif

	__builtin_avr_delay_cycles(__ticks_dc);
  cc:	3f ef       	ldi	r19, 0xFF	; 255
  ce:	83 ec       	ldi	r24, 0xC3	; 195
  d0:	99 e0       	ldi	r25, 0x09	; 9
  d2:	31 50       	subi	r19, 0x01	; 1
  d4:	80 40       	sbci	r24, 0x00	; 0
  d6:	90 40       	sbci	r25, 0x00	; 0
  d8:	e1 f7       	brne	.-8      	; 0xd2 <main+0x34>
  da:	00 c0       	rjmp	.+0      	; 0xdc <main+0x3e>
  dc:	00 00       	nop
	
	while (1)
	{
		
		
 		for (uint8_t i = 0; i < 3; i++) // 0부터 3까지 반복                             좌 우측 사이드부터 한칸씩 안쪽으로 이동. 누적x
  de:	2f 5f       	subi	r18, 0xFF	; 255
  e0:	23 30       	cpi	r18, 0x03	; 3
  e2:	08 f3       	brcs	.-62     	; 0xa6 <main+0x8>
  e4:	20 e0       	ldi	r18, 0x00	; 0
  e6:	1d c0       	rjmp	.+58     	; 0x122 <main+0x84>
 			_delay_ms(200);
 		}
 		
 		for (uint8_t i = 0; i < 3; i++) // 0부터 3까지 반복
 		{
 			LED_PORT = ((0x10<<i) | (0x08>>i)); // LED 위치를 오른쪽으로 이동
  e8:	80 e1       	ldi	r24, 0x10	; 16
  ea:	90 e0       	ldi	r25, 0x00	; 0
  ec:	ac 01       	movw	r20, r24
  ee:	02 2e       	mov	r0, r18
  f0:	02 c0       	rjmp	.+4      	; 0xf6 <main+0x58>
  f2:	44 0f       	add	r20, r20
  f4:	55 1f       	adc	r21, r21
  f6:	0a 94       	dec	r0
  f8:	e2 f7       	brpl	.-8      	; 0xf2 <main+0x54>
  fa:	88 e0       	ldi	r24, 0x08	; 8
  fc:	90 e0       	ldi	r25, 0x00	; 0
  fe:	02 2e       	mov	r0, r18
 100:	02 c0       	rjmp	.+4      	; 0x106 <main+0x68>
 102:	95 95       	asr	r25
 104:	87 95       	ror	r24
 106:	0a 94       	dec	r0
 108:	e2 f7       	brpl	.-8      	; 0x102 <main+0x64>
 10a:	84 2b       	or	r24, r20
 10c:	88 bb       	out	0x18, r24	; 24
 10e:	3f ef       	ldi	r19, 0xFF	; 255
 110:	83 ec       	ldi	r24, 0xC3	; 195
 112:	99 e0       	ldi	r25, 0x09	; 9
 114:	31 50       	subi	r19, 0x01	; 1
 116:	80 40       	sbci	r24, 0x00	; 0
 118:	90 40       	sbci	r25, 0x00	; 0
 11a:	e1 f7       	brne	.-8      	; 0x114 <main+0x76>
 11c:	00 c0       	rjmp	.+0      	; 0x11e <main+0x80>
 11e:	00 00       	nop
 		{
 			LED_PORT = ((0x80>>i) | (0x01<<i)); // LED 위치를 오른쪽으로 이동
 			_delay_ms(200);
 		}
 		
 		for (uint8_t i = 0; i < 3; i++) // 0부터 3까지 반복
 120:	2f 5f       	subi	r18, 0xFF	; 255
 122:	23 30       	cpi	r18, 0x03	; 3
 124:	08 f3       	brcs	.-62     	; 0xe8 <main+0x4a>
 126:	bd cf       	rjmp	.-134    	; 0xa2 <main+0x4>

00000128 <_exit>:
 128:	f8 94       	cli

0000012a <__stop_program>:
 12a:	ff cf       	rjmp	.-2      	; 0x12a <__stop_program>
